; Function Attrs: mustprogress uwtable
define hidden void @_ZN17opencv_tensorflow7NodeDef10clear_attrEv(ptr noundef nonnull align 8 dereferenceable(192) %0) local_unnamed_addr #3 align 2 personality ptr @__gxx_personality_v0 {
  %2 = getelementptr inbounds nuw i8, ptr %0, i64 56
  %3 = load ptr, ptr %2, align 8, !tbaa !78
  %.not.i = icmp eq ptr %3, null
  br i1 %.not.i, label %_ZN6google8protobuf8internal8MapFieldIN17opencv_tensorflow26NodeDef_AttrEntry_DoNotUseENSt7__cxx1112basic_stringIcSt11char_traitsIcESaIcEEENS3_9AttrValueELNS1_14WireFormatLite9FieldTypeE9ELSD_11EE5ClearEv.exit, label %4

4:                                                ; preds = %1
  %5 = getelementptr inbounds nuw i8, ptr %3, i64 8
  %6 = load i32, ptr %5, align 8, !tbaa !31
  %7 = icmp sgt i32 %6, 0
  br i1 %7, label %8, label %_ZN6google8protobuf8internal8MapFieldIN17opencv_tensorflow26NodeDef_AttrEntry_DoNotUseENSt7__cxx1112basic_stringIcSt11char_traitsIcESaIcEEENS3_9AttrValueELNS1_14WireFormatLite9FieldTypeE9ELSD_11EE5ClearEv.exit

8:                                                ; preds = %4
  %9 = getelementptr inbounds nuw i8, ptr %3, i64 16
  %10 = load ptr, ptr %9, align 8, !tbaa !30
  %11 = getelementptr inbounds nuw i8, ptr %10, i64 8
  %wide.trip.count.i.i.i = zext nneg i32 %6 to i64
  br label %12

12:                                               ; preds = %12, %8
  %indvars.iv.i.i.i = phi i64 [ %indvars.iv.next.i.i.i, %12 ], [ 0, %8 ]
  %indvars.iv.next.i.i.i = add nuw nsw i64 %indvars.iv.i.i.i, 1
  %13 = getelementptr inbounds nuw ptr, ptr %11, i64 %indvars.iv.i.i.i
  %14 = load ptr, ptr %13, align 8, !tbaa !36
  %15 = load ptr, ptr %14, align 8, !tbaa !27
  %16 = getelementptr inbounds nuw i8, ptr %15, i64 32
  %17 = load ptr, ptr %16, align 8
  tail call void %17(ptr noundef nonnull align 8 dereferenceable(36) %14)
  %exitcond.not.i.i.i = icmp eq i64 %indvars.iv.next.i.i.i, %wide.trip.count.i.i.i
  br i1 %exitcond.not.i.i.i, label %18, label %12, !llvm.loop !86

18:                                               ; preds = %12
  store i32 0, ptr %5, align 8, !tbaa !31
  br label %_ZN6google8protobuf8internal8MapFieldIN17opencv_tensorflow26NodeDef_AttrEntry_DoNotUseENSt7__cxx1112basic_stringIcSt11char_traitsIcESaIcEEENS3_9AttrValueELNS1_14WireFormatLite9FieldTypeE9ELSD_11EE5ClearEv.exit

_ZN6google8protobuf8internal8MapFieldIN17opencv_tensorflow26NodeDef_AttrEntry_DoNotUseENSt7__cxx1112basic_stringIcSt11char_traitsIcESaIcEEENS3_9AttrValueELNS1_14WireFormatLite9FieldTypeE9ELSD_11EE5ClearEv.exit: ; preds = %1, %4, %18
  %19 = getelementptr inbounds nuw i8, ptr %0, i64 40
  %20 = getelementptr inbounds nuw i8, ptr %0, i64 112
  tail call void @_ZN6google8protobuf3MapINSt7__cxx1112basic_stringIcSt11char_traitsIcESaIcEEEN17opencv_tensorflow9AttrValueEE8InnerMap5clearEv(ptr noundef nonnull align 8 dereferenceable(48) %20)
  tail call void @_ZN6google8protobuf8internal12MapFieldBase11SetMapDirtyEv(ptr noundef nonnull align 8 dereferenceable(120) %19)
  ret void
}